target datalayout = "e-m:e-p270:32:32-p271:32:32-p272:64:64-i64:64-i128:128-f80:128-n8:16:32:64-S128"
target triple = "x86_64-pc-linux-gnu"

%class.JvmtiEventEnabled = type { i64 }
%class.JvmtiEnvEventEnable = type { %class.JvmtiEventEnabled, %class.JvmtiEventEnabled, %class.JvmtiEventEnabled }
%class.Monitor = type { %class.Mutex }
%class.Mutex = type { ptr, %class.PlatformMonitor, ptr }
%class.PlatformMonitor = type { %class.PlatformMutex, %union.pthread_cond_t }
%class.PlatformMutex = type { %union.pthread_mutex_t }
%union.pthread_mutex_t = type { %struct.__pthread_mutex_s }
%struct.__pthread_mutex_s = type { i32, i32, i32, i32, i32, i16, i16, %struct.__pthread_internal_list }
%struct.__pthread_internal_list = type { ptr, ptr }
%union.pthread_cond_t = type { %struct.__pthread_cond_s }
%struct.__pthread_cond_s = type { %union.__atomic_wide_counter, %union.__atomic_wide_counter, [2 x i32], [2 x i32], i32, i32, [2 x i32] }
%union.__atomic_wide_counter = type { i64 }
%class.JvmtiEnvBase = type <{ %struct._jvmtiEnv, i32, i32, ptr, i8, [7 x i8], ptr, %struct.jvmtiEventCallbacks, %struct.jvmtiExtEventCallbacks, ptr, %class.JvmtiEnvEventEnable, %struct.jvmtiCapabilities, %struct.jvmtiCapabilities, i8, [7 x i8], ptr, i32, [4 x i8] }>
%struct._jvmtiEnv = type { ptr }
%struct.jvmtiEventCallbacks = type { ptr, ptr, ptr, ptr, ptr, ptr, ptr, ptr, ptr, ptr, ptr, ptr, ptr, ptr, ptr, ptr, ptr, ptr, ptr, ptr, ptr, ptr, ptr, ptr, ptr, ptr, ptr, ptr, ptr, ptr, ptr, ptr, ptr, ptr, ptr, ptr, ptr, ptr, ptr }
%struct.jvmtiExtEventCallbacks = type { ptr, ptr, ptr }
%struct.jvmtiCapabilities = type { i64, i64 }
%class.MutexLocker = type { %class.MutexLockerImpl }
%class.MutexLockerImpl = type { ptr }
%class.JvmtiTagMap = type <{ ptr, %class.Monitor, ptr, i8, i8, [6 x i8] }>
%"struct.Atomic::PlatformLoad" = type { i8 }
%"struct.Atomic::LoadImpl.11" = type { i8 }
%"struct.Atomic::PlatformOrderedLoad" = type { i8 }
%class.ScopedFence = type { ptr }
%"struct.Atomic::LoadImpl.12" = type { i8 }

; Function Attrs: mustprogress nounwind uwtable
define internal void @_ZL16compiler_barrierv() #1 {
  call void asm sideeffect "", "~{memory},~{dirflag},~{fpsr},~{flags}"() #9, !srcloc !18
  ret void
}

; Function Attrs: mustprogress nounwind uwtable
define linkonce_odr hidden void @_ZN11OrderAccess7acquireEv() #1 comdat align 2 {
  call void @_ZL16compiler_barrierv()
  ret void
}

; Function Attrs: mustprogress nounwind uwtable
define linkonce_odr hidden void @_ZN18ScopedFenceGeneralIL15ScopedFenceType0EE7postfixEv(ptr noundef nonnull align 1 dereferenceable(1) %0) #1 comdat align 2 {
  %2 = alloca ptr, align 8
  store ptr %0, ptr %2, align 8
  call void @_ZN11OrderAccess7acquireEv()
  ret void
}

; Function Attrs: mustprogress nounwind uwtable
define linkonce_odr hidden noundef ptr @_ZNK6Atomic12PlatformLoadILm8EEclIP11JvmtiTagMapEET_PVKS5_(ptr noundef nonnull align 1 dereferenceable(1) %0, ptr noundef %1) #1 comdat align 2 {
  %3 = alloca ptr, align 8
  %4 = alloca ptr, align 8
  store ptr %0, ptr %3, align 8
  store ptr %1, ptr %4, align 8
  %5 = load ptr, ptr %4, align 8
  %6 = load volatile ptr, ptr %5, align 8
  ret ptr %6
}

; Function Attrs: mustprogress nounwind uwtable
define linkonce_odr hidden void @_ZN18ScopedFenceGeneralIL15ScopedFenceType0EE6prefixEv(ptr noundef nonnull align 1 dereferenceable(1) %0) #1 comdat align 2 {
  %2 = alloca ptr, align 8
  store ptr %0, ptr %2, align 8
  ret void
}

; Function Attrs: mustprogress nounwind uwtable
define linkonce_odr hidden void @_ZN11ScopedFenceIL15ScopedFenceType0EE7postfixEv(ptr noundef nonnull align 8 dereferenceable(8) %0) #1 comdat align 2 {
  %2 = alloca ptr, align 8
  store ptr %0, ptr %2, align 8
  %3 = load ptr, ptr %2, align 8
  call void @_ZN18ScopedFenceGeneralIL15ScopedFenceType0EE7postfixEv(ptr noundef nonnull align 1 dereferenceable(1) %3)
  ret void
}

; Function Attrs: mustprogress nounwind uwtable
define linkonce_odr hidden noundef ptr @_ZNK6Atomic8LoadImplIP11JvmtiTagMapNS_12PlatformLoadILm8EEEvEclEPVKS2_(ptr noundef nonnull align 1 dereferenceable(1) %0, ptr noundef %1) #1 comdat align 2 {
  %3 = alloca ptr, align 8
  %4 = alloca ptr, align 8
  %5 = alloca %"struct.Atomic::PlatformLoad", align 1
  store ptr %0, ptr %3, align 8
  store ptr %1, ptr %4, align 8
  %6 = load ptr, ptr %4, align 8
  %7 = call noundef ptr @_ZNK6Atomic12PlatformLoadILm8EEclIP11JvmtiTagMapEET_PVKS5_(ptr noundef nonnull align 1 dereferenceable(1) %5, ptr noundef %6)
  ret ptr %7
}

; Function Attrs: mustprogress nounwind uwtable
define linkonce_odr hidden void @_ZN11ScopedFenceIL15ScopedFenceType0EE6prefixEv(ptr noundef nonnull align 8 dereferenceable(8) %0) #1 comdat align 2 {
  %2 = alloca ptr, align 8
  store ptr %0, ptr %2, align 8
  %3 = load ptr, ptr %2, align 8
  call void @_ZN18ScopedFenceGeneralIL15ScopedFenceType0EE6prefixEv(ptr noundef nonnull align 1 dereferenceable(1) %3)
  ret void
}

; Function Attrs: mustprogress nounwind uwtable
define linkonce_odr hidden void @_ZN11ScopedFenceIL15ScopedFenceType0EED2Ev(ptr noundef nonnull align 8 dereferenceable(8) %0) unnamed_addr #1 comdat align 2 {
  %2 = alloca ptr, align 8
  store ptr %0, ptr %2, align 8
  %3 = load ptr, ptr %2, align 8
  call void @_ZN11ScopedFenceIL15ScopedFenceType0EE7postfixEv(ptr noundef nonnull align 8 dereferenceable(8) %3)
  ret void
}

; Function Attrs: mustprogress nounwind uwtable
define linkonce_odr hidden noundef ptr @_ZN6Atomic4loadIP11JvmtiTagMapEET_PVKS3_(ptr noundef %0) #1 comdat align 2 {
  %2 = alloca ptr, align 8
  %3 = alloca %"struct.Atomic::LoadImpl.12", align 1
  store ptr %0, ptr %2, align 8
  %4 = load ptr, ptr %2, align 8
  %5 = call noundef ptr @_ZNK6Atomic8LoadImplIP11JvmtiTagMapNS_12PlatformLoadILm8EEEvEclEPVKS2_(ptr noundef nonnull align 1 dereferenceable(1) %3, ptr noundef %4)
  ret ptr %5
}

; Function Attrs: mustprogress nounwind uwtable
define linkonce_odr hidden void @_ZN11ScopedFenceIL15ScopedFenceType0EEC2EPv(ptr noundef nonnull align 8 dereferenceable(8) %0, ptr noundef %1) unnamed_addr #1 comdat align 2 {
  %3 = alloca ptr, align 8
  %4 = alloca ptr, align 8
  store ptr %0, ptr %3, align 8
  store ptr %1, ptr %4, align 8
  %5 = load ptr, ptr %3, align 8
  %6 = getelementptr inbounds %class.ScopedFence, ptr %5, i32 0, i32 0
  %7 = load ptr, ptr %4, align 8
  store ptr %7, ptr %6, align 8
  call void @_ZN11ScopedFenceIL15ScopedFenceType0EE6prefixEv(ptr noundef nonnull align 8 dereferenceable(8) %5)
  ret void
}

; Function Attrs: mustprogress nounwind uwtable
define linkonce_odr hidden noundef ptr @_ZNK6Atomic19PlatformOrderedLoadILm8EL15ScopedFenceType0EEclIP11JvmtiTagMapEET_PVKS6_(ptr noundef nonnull align 1 dereferenceable(1) %0, ptr noundef %1) #1 comdat align 2 {
  %3 = alloca ptr, align 8
  %4 = alloca ptr, align 8
  %5 = alloca %class.ScopedFence, align 8
  store ptr %0, ptr %3, align 8
  store ptr %1, ptr %4, align 8
  %6 = load ptr, ptr %4, align 8
  call void @_ZN11ScopedFenceIL15ScopedFenceType0EEC2EPv(ptr noundef nonnull align 8 dereferenceable(8) %5, ptr noundef %6)
  %7 = load ptr, ptr %4, align 8
  %8 = call noundef ptr @_ZN6Atomic4loadIP11JvmtiTagMapEET_PVKS3_(ptr noundef %7)
  call void @_ZN11ScopedFenceIL15ScopedFenceType0EED2Ev(ptr noundef nonnull align 8 dereferenceable(8) %5) #9
  ret ptr %8
}

; Function Attrs: mustprogress nounwind uwtable
define linkonce_odr hidden noundef ptr @_ZNK6Atomic8LoadImplIP11JvmtiTagMapNS_19PlatformOrderedLoadILm8EL15ScopedFenceType0EEEvEclEPVKS2_(ptr noundef nonnull align 1 dereferenceable(1) %0, ptr noundef %1) #1 comdat align 2 {
  %3 = alloca ptr, align 8
  %4 = alloca ptr, align 8
  %5 = alloca %"struct.Atomic::PlatformOrderedLoad", align 1
  store ptr %0, ptr %3, align 8
  store ptr %1, ptr %4, align 8
  %6 = load ptr, ptr %4, align 8
  %7 = call noundef ptr @_ZNK6Atomic19PlatformOrderedLoadILm8EL15ScopedFenceType0EEclIP11JvmtiTagMapEET_PVKS6_(ptr noundef nonnull align 1 dereferenceable(1) %5, ptr noundef %6)
  ret ptr %7
}

; Function Attrs: mustprogress nounwind uwtable
define linkonce_odr hidden void @_ZN15MutexLockerImplD2Ev(ptr noundef nonnull align 8 dereferenceable(8) %0) unnamed_addr #1 comdat align 2 {
  %2 = alloca ptr, align 8
  store ptr %0, ptr %2, align 8
  %3 = load ptr, ptr %2, align 8
  %4 = getelementptr inbounds %class.MutexLockerImpl, ptr %3, i32 0, i32 0
  %5 = load ptr, ptr %4, align 8
  %6 = icmp ne ptr %5, null
  br i1 %6, label %7, label %10

7:                                                ; preds = %1
  %8 = getelementptr inbounds %class.MutexLockerImpl, ptr %3, i32 0, i32 0
  %9 = load ptr, ptr %8, align 8
  call void @_ZN5Mutex6unlockEv(ptr noundef nonnull align 8 dereferenceable(104) %9)
  br label %10

10:                                               ; preds = %7, %1
  ret void
}

; Function Attrs: mustprogress nounwind uwtable
define linkonce_odr hidden void @_ZN15MutexLockerImplC2EP5MutexNS0_18SafepointCheckFlagE(ptr noundef nonnull align 8 dereferenceable(8) %0, ptr noundef %1, i32 noundef %2) unnamed_addr #1 comdat align 2 {
  %4 = alloca ptr, align 8
  %5 = alloca ptr, align 8
  %6 = alloca i32, align 4
  %7 = alloca i8, align 1
  store ptr %0, ptr %4, align 8
  store ptr %1, ptr %5, align 8
  store i32 %2, ptr %6, align 4
  %8 = load ptr, ptr %4, align 8
  %9 = getelementptr inbounds %class.MutexLockerImpl, ptr %8, i32 0, i32 0
  %10 = load ptr, ptr %5, align 8
  store ptr %10, ptr %9, align 8
  %11 = load i32, ptr %6, align 4
  %12 = icmp eq i32 %11, 1
  %13 = zext i1 %12 to i8
  store i8 %13, ptr %7, align 1
  %14 = getelementptr inbounds %class.MutexLockerImpl, ptr %8, i32 0, i32 0
  %15 = load ptr, ptr %14, align 8
  %16 = icmp ne ptr %15, null
  br i1 %16, label %17, label %27

17:                                               ; preds = %3
  %18 = load i8, ptr %7, align 1
  %19 = trunc i8 %18 to i1
  br i1 %19, label %20, label %23

20:                                               ; preds = %17
  %21 = getelementptr inbounds %class.MutexLockerImpl, ptr %8, i32 0, i32 0
  %22 = load ptr, ptr %21, align 8
  call void @_ZN5Mutex28lock_without_safepoint_checkEv(ptr noundef nonnull align 8 dereferenceable(104) %22)
  br label %26

23:                                               ; preds = %17
  %24 = getelementptr inbounds %class.MutexLockerImpl, ptr %8, i32 0, i32 0
  %25 = load ptr, ptr %24, align 8
  call void @_ZN5Mutex4lockEv(ptr noundef nonnull align 8 dereferenceable(104) %25)
  br label %26

26:                                               ; preds = %23, %20
  br label %27

27:                                               ; preds = %26, %3
  ret void
}

; Function Attrs: mustprogress nounwind uwtable
define linkonce_odr hidden noundef ptr @_ZN6Atomic12load_acquireIP11JvmtiTagMapEET_PVKS3_(ptr noundef %0) #1 comdat align 2 {
  %2 = alloca ptr, align 8
  %3 = alloca %"struct.Atomic::LoadImpl.11", align 1
  store ptr %0, ptr %2, align 8
  %4 = load ptr, ptr %2, align 8
  %5 = call noundef ptr @_ZNK6Atomic8LoadImplIP11JvmtiTagMapNS_19PlatformOrderedLoadILm8EL15ScopedFenceType0EEEvEclEPVKS2_(ptr noundef nonnull align 1 dereferenceable(1) %3, ptr noundef %4)
  ret ptr %5
}

; Function Attrs: mustprogress nounwind uwtable
define linkonce_odr hidden void @_ZN11MutexLockerD2Ev(ptr noundef nonnull align 8 dereferenceable(8) %0) unnamed_addr #1 comdat align 2 {
  %2 = alloca ptr, align 8
  store ptr %0, ptr %2, align 8
  %3 = load ptr, ptr %2, align 8
  call void @_ZN15MutexLockerImplD2Ev(ptr noundef nonnull align 8 dereferenceable(8) %3) #9
  ret void
}

; Function Attrs: mustprogress nounwind uwtable
define linkonce_odr hidden void @_ZN17JvmtiEventEnabled8set_bitsEl(ptr noundef nonnull align 8 dereferenceable(8) %0, i64 noundef %1) #1 comdat align 2 {
  %3 = alloca ptr, align 8
  %4 = alloca i64, align 8
  store ptr %0, ptr %3, align 8
  store i64 %1, ptr %4, align 8
  %5 = load ptr, ptr %3, align 8
  %6 = load i64, ptr %4, align 8
  %7 = getelementptr inbounds %class.JvmtiEventEnabled, ptr %5, i32 0, i32 0
  store i64 %6, ptr %7, align 8
  ret void
}

; Function Attrs: mustprogress nounwind uwtable
define linkonce_odr hidden noundef ptr @_ZN12JvmtiEnvBase16env_event_enableEv(ptr noundef nonnull align 8 dereferenceable(460) %0) #1 comdat align 2 {
  %2 = alloca ptr, align 8
  store ptr %0, ptr %2, align 8
  %3 = load ptr, ptr %2, align 8
  %4 = getelementptr inbounds %class.JvmtiEnvBase, ptr %3, i32 0, i32 10
  ret ptr %4
}

; Function Attrs: mustprogress nounwind uwtable
define linkonce_odr hidden void @_ZN11MutexLockerC2EP5MutexNS0_18SafepointCheckFlagE(ptr noundef nonnull align 8 dereferenceable(8) %0, ptr noundef %1, i32 noundef %2) unnamed_addr #1 comdat align 2 {
  %4 = alloca ptr, align 8
  %5 = alloca ptr, align 8
  %6 = alloca i32, align 4
  store ptr %0, ptr %4, align 8
  store ptr %1, ptr %5, align 8
  store i32 %2, ptr %6, align 4
  %7 = load ptr, ptr %4, align 8
  %8 = load ptr, ptr %5, align 8
  %9 = load i32, ptr %6, align 4
  call void @_ZN15MutexLockerImplC2EP5MutexNS0_18SafepointCheckFlagE(ptr noundef nonnull align 8 dereferenceable(8) %7, ptr noundef %8, i32 noundef %9)
  ret void
}

; Function Attrs: mustprogress nounwind uwtable
define linkonce_odr hidden noundef ptr @_ZN11JvmtiTagMap4lockEv(ptr noundef nonnull align 8 dereferenceable(122) %0) #1 comdat align 2 {
  %2 = alloca ptr, align 8
  store ptr %0, ptr %2, align 8
  %3 = load ptr, ptr %2, align 8
  %4 = getelementptr inbounds %class.JvmtiTagMap, ptr %3, i32 0, i32 1
  ret ptr %4
}

; Function Attrs: mustprogress nounwind uwtable
define linkonce_odr hidden noundef ptr @_ZN12JvmtiEnvBase15tag_map_acquireEv(ptr noundef nonnull align 8 dereferenceable(460) %0) #1 comdat align 2 {
  %2 = alloca ptr, align 8
  store ptr %0, ptr %2, align 8
  %3 = load ptr, ptr %2, align 8
  %4 = getelementptr inbounds %class.JvmtiEnvBase, ptr %3, i32 0, i32 9
  %5 = call noundef ptr @_ZN6Atomic12load_acquireIP11JvmtiTagMapEET_PVKS3_(ptr noundef %4)
  ret ptr %5
}

; Function Attrs: mustprogress nounwind uwtable
define hidden void @_ZN27JvmtiEventControllerPrivate28set_enabled_events_with_lockEP12JvmtiEnvBasel(ptr noundef %0, i64 noundef %1) #1 align 2 {
  %3 = alloca ptr, align 8
  %4 = alloca i64, align 8
  %5 = alloca ptr, align 8
  %6 = alloca %class.MutexLocker, align 8
  store ptr %0, ptr %3, align 8
  store i64 %1, ptr %4, align 8
  %7 = load ptr, ptr %3, align 8
  %8 = call noundef ptr @_ZN12JvmtiEnvBase15tag_map_acquireEv(ptr noundef nonnull align 8 dereferenceable(460) %7)
  store ptr %8, ptr %5, align 8
  %9 = load ptr, ptr %5, align 8
  %10 = icmp ne ptr %9, null
  br i1 %10, label %11, label %18

11:                                               ; preds = %2
  %12 = load ptr, ptr %5, align 8
  %13 = call noundef ptr @_ZN11JvmtiTagMap4lockEv(ptr noundef nonnull align 8 dereferenceable(122) %12)
  call void @_ZN11MutexLockerC2EP5MutexNS0_18SafepointCheckFlagE(ptr noundef nonnull align 8 dereferenceable(8) %6, ptr noundef %13, i32 noundef 1)
  %14 = load ptr, ptr %3, align 8
  %15 = call noundef ptr @_ZN12JvmtiEnvBase16env_event_enableEv(ptr noundef nonnull align 8 dereferenceable(460) %14)
  %16 = getelementptr inbounds %class.JvmtiEnvEventEnable, ptr %15, i32 0, i32 2
  %17 = load i64, ptr %4, align 8
  call void @_ZN17JvmtiEventEnabled8set_bitsEl(ptr noundef nonnull align 8 dereferenceable(8) %16, i64 noundef %17)
  call void @_ZN11MutexLockerD2Ev(ptr noundef nonnull align 8 dereferenceable(8) %6) #9
  br label %23

18:                                               ; preds = %2
  %19 = load ptr, ptr %3, align 8
  %20 = call noundef ptr @_ZN12JvmtiEnvBase16env_event_enableEv(ptr noundef nonnull align 8 dereferenceable(460) %19)
  %21 = getelementptr inbounds %class.JvmtiEnvEventEnable, ptr %20, i32 0, i32 2
  %22 = load i64, ptr %4, align 8
  call void @_ZN17JvmtiEventEnabled8set_bitsEl(ptr noundef nonnull align 8 dereferenceable(8) %21, i64 noundef %22)
  br label %23

23:                                               ; preds = %18, %11
  ret void
}