; Function Attrs: mustprogress nounwind uwtable
define hidden void @_ZN27JvmtiEventControllerPrivate28set_enabled_events_with_lockEP12JvmtiEnvBasel(ptr noundef %0, i64 noundef %1) local_unnamed_addr #3 align 2 {
  %3 = getelementptr inbounds i8, ptr %0, i64 376
  %4 = load volatile ptr, ptr %3, align 8
  tail call void asm sideeffect "", "~{memory},~{dirflag},~{fpsr},~{flags}"() #15, !srcloc !13
  %.not = icmp eq ptr %4, null
  br i1 %.not, label %7, label %_ZN11MutexLockerD2Ev.exit

_ZN11MutexLockerD2Ev.exit:                        ; preds = %2
  %5 = getelementptr inbounds i8, ptr %4, i64 8
  tail call void @_ZN5Mutex28lock_without_safepoint_checkEv(ptr noundef nonnull align 8 dereferenceable(104) %5) #15
  %6 = getelementptr inbounds i8, ptr %0, i64 400
  store i64 %1, ptr %6, align 8
  tail call void @_ZN5Mutex6unlockEv(ptr noundef nonnull align 8 dereferenceable(104) %5) #15
  br label %9

7:                                                ; preds = %2
  %8 = getelementptr inbounds i8, ptr %0, i64 400
  store i64 %1, ptr %8, align 8
  br label %9

9:                                                ; preds = %7, %_ZN11MutexLockerD2Ev.exit
  ret void
}